target datalayout = "e-m:e-p270:32:32-p271:32:32-p272:64:64-i64:64-i128:128-f80:128-n8:16:32:64-S128"
target triple = "x86_64-pc-linux-gnu"

%struct.crypto_secretstream_xchacha20poly1305_state = type { [32 x i8], [12 x i8], [8 x i8] }

; Function Attrs: alwaysinline nounwind
define internal ptr @memset.inline(ptr nonnull %0, i32 %1, i64 %2) #3 {
  %4 = alloca ptr, align 8
  %5 = alloca i32, align 4
  %6 = alloca i64, align 8
  store ptr %0, ptr %4, align 8
  store i32 %1, ptr %5, align 4
  store i64 %2, ptr %6, align 8
  %7 = load ptr, ptr %4, align 8
  %8 = load i32, ptr %5, align 4
  %9 = load i64, ptr %6, align 8
  %10 = load ptr, ptr %4, align 8
  %11 = call i64 @llvm.objectsize.i64.p0(ptr %10, i1 false, i1 true, i1 true)
  %12 = call ptr @__memset_chk(ptr noundef %7, i32 noundef %8, i64 noundef %9, i64 noundef %11) #8
  ret ptr %12
}

; Function Attrs: inlinehint nounwind ssp uwtable
define internal void @_crypto_secretstream_xchacha20poly1305_counter_reset(ptr noundef %0) #2 {
  %2 = alloca ptr, align 8
  store ptr %0, ptr %2, align 8
  %3 = load ptr, ptr %2, align 8
  %4 = getelementptr inbounds nuw %struct.crypto_secretstream_xchacha20poly1305_state, ptr %3, i32 0, i32 1
  %5 = getelementptr inbounds [12 x i8], ptr %4, i64 0, i64 0
  %6 = call ptr @memset.inline(ptr noundef %5, i32 noundef 0, i64 noundef 4) #8
  %7 = load ptr, ptr %2, align 8
  %8 = getelementptr inbounds nuw %struct.crypto_secretstream_xchacha20poly1305_state, ptr %7, i32 0, i32 1
  %9 = getelementptr [12 x i8], ptr %8, i64 0, i64 0
  store i8 1, ptr %9, align 1
  ret void
}

; Function Attrs: nounwind ssp uwtable
define dso_local void @crypto_secretstream_xchacha20poly1305_rekey(ptr noundef %0) #0 {
  %2 = alloca ptr, align 8
  %3 = alloca [40 x i8], align 16
  %4 = alloca i64, align 8
  store ptr %0, ptr %2, align 8
  call void @llvm.lifetime.start.p0(i64 40, ptr %3) #8
  call void @llvm.lifetime.start.p0(i64 8, ptr %4) #8
  store i64 0, ptr %4, align 8
  br label %5

5:                                                ; preds = %16, %1
  %6 = load i64, ptr %4, align 8
  %7 = icmp ult i64 %6, 32
  br i1 %7, label %8, label %19

8:                                                ; preds = %5
  %9 = load ptr, ptr %2, align 8
  %10 = getelementptr inbounds nuw %struct.crypto_secretstream_xchacha20poly1305_state, ptr %9, i32 0, i32 0
  %11 = load i64, ptr %4, align 8
  %12 = getelementptr [32 x i8], ptr %10, i64 0, i64 %11
  %13 = load i8, ptr %12, align 1
  %14 = load i64, ptr %4, align 8
  %15 = getelementptr [40 x i8], ptr %3, i64 0, i64 %14
  store i8 %13, ptr %15, align 1
  br label %16

16:                                               ; preds = %8
  %17 = load i64, ptr %4, align 8
  %18 = add i64 %17, 1
  store i64 %18, ptr %4, align 8
  br label %5, !llvm.loop !4

19:                                               ; preds = %5
  store i64 0, ptr %4, align 8
  br label %20

20:                                               ; preds = %34, %19
  %21 = load i64, ptr %4, align 8
  %22 = icmp ult i64 %21, 8
  br i1 %22, label %23, label %37

23:                                               ; preds = %20
  %24 = load ptr, ptr %2, align 8
  %25 = getelementptr inbounds nuw %struct.crypto_secretstream_xchacha20poly1305_state, ptr %24, i32 0, i32 1
  %26 = getelementptr inbounds [12 x i8], ptr %25, i64 0, i64 0
  %27 = getelementptr i8, ptr %26, i64 4
  %28 = load i64, ptr %4, align 8
  %29 = getelementptr i8, ptr %27, i64 %28
  %30 = load i8, ptr %29, align 1
  %31 = load i64, ptr %4, align 8
  %32 = add i64 32, %31
  %33 = getelementptr [40 x i8], ptr %3, i64 0, i64 %32
  store i8 %30, ptr %33, align 1
  br label %34

34:                                               ; preds = %23
  %35 = load i64, ptr %4, align 8
  %36 = add i64 %35, 1
  store i64 %36, ptr %4, align 8
  br label %20, !llvm.loop !6

37:                                               ; preds = %20
  %38 = getelementptr inbounds [40 x i8], ptr %3, i64 0, i64 0
  %39 = getelementptr inbounds [40 x i8], ptr %3, i64 0, i64 0
  %40 = load ptr, ptr %2, align 8
  %41 = getelementptr inbounds nuw %struct.crypto_secretstream_xchacha20poly1305_state, ptr %40, i32 0, i32 1
  %42 = getelementptr inbounds [12 x i8], ptr %41, i64 0, i64 0
  %43 = load ptr, ptr %2, align 8
  %44 = getelementptr inbounds nuw %struct.crypto_secretstream_xchacha20poly1305_state, ptr %43, i32 0, i32 0
  %45 = getelementptr inbounds [32 x i8], ptr %44, i64 0, i64 0
  %46 = call i32 @crypto_stream_chacha20_ietf_xor(ptr noundef %38, ptr noundef %39, i64 noundef 40, ptr noundef %42, ptr noundef %45)
  store i64 0, ptr %4, align 8
  br label %47

47:                                               ; preds = %58, %37
  %48 = load i64, ptr %4, align 8
  %49 = icmp ult i64 %48, 32
  br i1 %49, label %50, label %61

50:                                               ; preds = %47
  %51 = load i64, ptr %4, align 8
  %52 = getelementptr [40 x i8], ptr %3, i64 0, i64 %51
  %53 = load i8, ptr %52, align 1
  %54 = load ptr, ptr %2, align 8
  %55 = getelementptr inbounds nuw %struct.crypto_secretstream_xchacha20poly1305_state, ptr %54, i32 0, i32 0
  %56 = load i64, ptr %4, align 8
  %57 = getelementptr [32 x i8], ptr %55, i64 0, i64 %56
  store i8 %53, ptr %57, align 1
  br label %58

58:                                               ; preds = %50
  %59 = load i64, ptr %4, align 8
  %60 = add i64 %59, 1
  store i64 %60, ptr %4, align 8
  br label %47, !llvm.loop !7

61:                                               ; preds = %47
  store i64 0, ptr %4, align 8
  br label %62

62:                                               ; preds = %76, %61
  %63 = load i64, ptr %4, align 8
  %64 = icmp ult i64 %63, 8
  br i1 %64, label %65, label %79

65:                                               ; preds = %62
  %66 = load i64, ptr %4, align 8
  %67 = add i64 32, %66
  %68 = getelementptr [40 x i8], ptr %3, i64 0, i64 %67
  %69 = load i8, ptr %68, align 1
  %70 = load ptr, ptr %2, align 8
  %71 = getelementptr inbounds nuw %struct.crypto_secretstream_xchacha20poly1305_state, ptr %70, i32 0, i32 1
  %72 = getelementptr inbounds [12 x i8], ptr %71, i64 0, i64 0
  %73 = getelementptr i8, ptr %72, i64 4
  %74 = load i64, ptr %4, align 8
  %75 = getelementptr i8, ptr %73, i64 %74
  store i8 %69, ptr %75, align 1
  br label %76

76:                                               ; preds = %65
  %77 = load i64, ptr %4, align 8
  %78 = add i64 %77, 1
  store i64 %78, ptr %4, align 8
  br label %62, !llvm.loop !8

79:                                               ; preds = %62
  %80 = load ptr, ptr %2, align 8
  call void @_crypto_secretstream_xchacha20poly1305_counter_reset(ptr noundef %80)
  call void @llvm.lifetime.end.p0(i64 8, ptr %4) #8
  call void @llvm.lifetime.end.p0(i64 40, ptr %3) #8
  ret void
}