; Function Attrs: nounwind ssp uwtable
define dso_local void @crypto_secretstream_xchacha20poly1305_rekey(ptr noundef %0) local_unnamed_addr #0 {
.preheader22:
  %1 = alloca [40 x i8], align 16
  call void @llvm.lifetime.start.p0(i64 40, ptr nonnull %1) #7
  call void @llvm.memcpy.p0.p0.i64(ptr noundef nonnull align 16 dereferenceable(32) %1, ptr noundef nonnull align 1 dereferenceable(32) %0, i64 32, i1 false)
  %2 = getelementptr i8, ptr %0, i64 36
  %scevgep = getelementptr inbounds nuw i8, ptr %1, i64 32
  %3 = load i64, ptr %2, align 1
  store i64 %3, ptr %scevgep, align 16
  %4 = getelementptr inbounds nuw i8, ptr %0, i64 32
  %5 = call i32 @crypto_stream_chacha20_ietf_xor(ptr noundef nonnull %1, ptr noundef nonnull %1, i64 noundef 40, ptr noundef nonnull %4, ptr noundef nonnull %0) #7
  call void @llvm.memcpy.p0.p0.i64(ptr noundef nonnull align 1 dereferenceable(32) %0, ptr noundef nonnull align 16 dereferenceable(32) %1, i64 32, i1 false)
  %6 = load i64, ptr %scevgep, align 16
  store i64 %6, ptr %2, align 1
  store i32 0, ptr %4, align 1
  store i8 1, ptr %4, align 1
  call void @llvm.lifetime.end.p0(i64 40, ptr nonnull %1) #7
  ret void
}